; Function Attrs: mustprogress nofree norecurse nosync nounwind willreturn memory(argmem: write) uwtable
define hidden noundef i32 @SHA256_Init(ptr noundef writeonly captures(none) initializes((0, 112)) %0) local_unnamed_addr #0 {
  %2 = getelementptr inbounds nuw i8, ptr %0, i64 32
  tail call void @llvm.memset.p0.i64(ptr noundef nonnull align 4 dereferenceable(112) %2, i8 0, i64 76, i1 false)
  store i32 1779033703, ptr %0, align 4, !tbaa !6
  %3 = getelementptr inbounds nuw i8, ptr %0, i64 4
  store i32 -1150833019, ptr %3, align 4, !tbaa !6
  %4 = getelementptr inbounds nuw i8, ptr %0, i64 8
  store i32 1013904242, ptr %4, align 4, !tbaa !6
  %5 = getelementptr inbounds nuw i8, ptr %0, i64 12
  store i32 -1521486534, ptr %5, align 4, !tbaa !6
  %6 = getelementptr inbounds nuw i8, ptr %0, i64 16
  store i32 1359893119, ptr %6, align 4, !tbaa !6
  %7 = getelementptr inbounds nuw i8, ptr %0, i64 20
  store i32 -1694144372, ptr %7, align 4, !tbaa !6
  %8 = getelementptr inbounds nuw i8, ptr %0, i64 24
  store i32 528734635, ptr %8, align 4, !tbaa !6
  %9 = getelementptr inbounds nuw i8, ptr %0, i64 28
  store i32 1541459225, ptr %9, align 4, !tbaa !6
  %10 = getelementptr inbounds nuw i8, ptr %0, i64 108
  store i32 32, ptr %10, align 4, !tbaa !10
  ret i32 1
}